target datalayout = "e-m:e-p270:32:32-p271:32:32-p272:64:64-i64:64-i128:128-f80:128-n8:16:32:64-S128"
target triple = "x86_64-pc-linux-gnu"

%struct.Curl_cfilter = type { ptr, ptr, ptr, ptr, i32, i8 }
%struct.Curl_cftype = type { ptr, i32, i32, ptr, ptr, ptr, ptr, ptr, ptr, ptr, ptr, ptr, ptr, ptr, ptr, ptr }
%struct.easy_pollset = type { [5 x i32], i32, [5 x i8] }
%struct.pollfd = type { i32, i16, i16 }

; Function Attrs: nounwind uwtable
define dso_local void @Curl_conn_cf_adjust_pollset(ptr noundef %0, ptr noundef %1, ptr noundef %2) #0 {
  %4 = alloca ptr, align 8
  %5 = alloca ptr, align 8
  %6 = alloca ptr, align 8
  store ptr %0, ptr %4, align 8, !tbaa !4
  store ptr %1, ptr %5, align 8, !tbaa !9
  store ptr %2, ptr %6, align 8, !tbaa !54
  br label %7

7:                                                ; preds = %34, %3
  %8 = load ptr, ptr %4, align 8, !tbaa !4
  %9 = icmp ne ptr %8, null
  br i1 %9, label %10, label %32

10:                                               ; preds = %7
  %11 = load ptr, ptr %4, align 8, !tbaa !4
  %12 = getelementptr inbounds nuw %struct.Curl_cfilter, ptr %11, i32 0, i32 5
  %13 = load i8, ptr %12, align 4
  %14 = and i8 %13, 1
  %15 = zext i8 %14 to i32
  %16 = icmp ne i32 %15, 0
  br i1 %16, label %32, label %17

17:                                               ; preds = %10
  %18 = load ptr, ptr %4, align 8, !tbaa !4
  %19 = getelementptr inbounds nuw %struct.Curl_cfilter, ptr %18, i32 0, i32 1
  %20 = load ptr, ptr %19, align 8, !tbaa !19
  %21 = icmp ne ptr %20, null
  br i1 %21, label %22, label %32

22:                                               ; preds = %17
  %23 = load ptr, ptr %4, align 8, !tbaa !4
  %24 = getelementptr inbounds nuw %struct.Curl_cfilter, ptr %23, i32 0, i32 1
  %25 = load ptr, ptr %24, align 8, !tbaa !19
  %26 = getelementptr inbounds nuw %struct.Curl_cfilter, ptr %25, i32 0, i32 5
  %27 = load i8, ptr %26, align 4
  %28 = and i8 %27, 1
  %29 = zext i8 %28 to i32
  %30 = icmp ne i32 %29, 0
  %31 = xor i1 %30, true
  br label %32

32:                                               ; preds = %22, %17, %10, %7
  %33 = phi i1 [ false, %17 ], [ false, %10 ], [ false, %7 ], [ %31, %22 ]
  br i1 %33, label %34, label %38

34:                                               ; preds = %32
  %35 = load ptr, ptr %4, align 8, !tbaa !4
  %36 = getelementptr inbounds nuw %struct.Curl_cfilter, ptr %35, i32 0, i32 1
  %37 = load ptr, ptr %36, align 8, !tbaa !19
  store ptr %37, ptr %4, align 8, !tbaa !4
  br label %7, !llvm.loop !150

38:                                               ; preds = %32
  br label %39

39:                                               ; preds = %52, %38
  %40 = load ptr, ptr %4, align 8, !tbaa !4
  %41 = icmp ne ptr %40, null
  br i1 %41, label %42, label %50

42:                                               ; preds = %39
  %43 = load ptr, ptr %4, align 8, !tbaa !4
  %44 = getelementptr inbounds nuw %struct.Curl_cfilter, ptr %43, i32 0, i32 5
  %45 = load i8, ptr %44, align 4
  %46 = lshr i8 %45, 1
  %47 = and i8 %46, 1
  %48 = zext i8 %47 to i32
  %49 = icmp ne i32 %48, 0
  br label %50

50:                                               ; preds = %42, %39
  %51 = phi i1 [ false, %39 ], [ %49, %42 ]
  br i1 %51, label %52, label %56

52:                                               ; preds = %50
  %53 = load ptr, ptr %4, align 8, !tbaa !4
  %54 = getelementptr inbounds nuw %struct.Curl_cfilter, ptr %53, i32 0, i32 1
  %55 = load ptr, ptr %54, align 8, !tbaa !19
  store ptr %55, ptr %4, align 8, !tbaa !4
  br label %39, !llvm.loop !151

56:                                               ; preds = %50
  br label %57

57:                                               ; preds = %60, %56
  %58 = load ptr, ptr %4, align 8, !tbaa !4
  %59 = icmp ne ptr %58, null
  br i1 %59, label %60, label %72

60:                                               ; preds = %57
  %61 = load ptr, ptr %4, align 8, !tbaa !4
  %62 = getelementptr inbounds nuw %struct.Curl_cfilter, ptr %61, i32 0, i32 0
  %63 = load ptr, ptr %62, align 8, !tbaa !24
  %64 = getelementptr inbounds nuw %struct.Curl_cftype, ptr %63, i32 0, i32 8
  %65 = load ptr, ptr %64, align 8, !tbaa !152
  %66 = load ptr, ptr %4, align 8, !tbaa !4
  %67 = load ptr, ptr %5, align 8, !tbaa !9
  %68 = load ptr, ptr %6, align 8, !tbaa !54
  call void %65(ptr noundef %66, ptr noundef %67, ptr noundef %68)
  %69 = load ptr, ptr %4, align 8, !tbaa !4
  %70 = getelementptr inbounds nuw %struct.Curl_cfilter, ptr %69, i32 0, i32 1
  %71 = load ptr, ptr %70, align 8, !tbaa !19
  store ptr %71, ptr %4, align 8, !tbaa !4
  br label %57, !llvm.loop !153

72:                                               ; preds = %57
  ret void
}

; Function Attrs: nounwind uwtable
define dso_local i32 @Curl_conn_cf_poll(ptr noundef %0, ptr noundef %1, i64 noundef %2) #0 {
  %4 = alloca ptr, align 8
  %5 = alloca ptr, align 8
  %6 = alloca i64, align 8
  %7 = alloca %struct.easy_pollset, align 4
  %8 = alloca [5 x %struct.pollfd], align 16
  %9 = alloca i32, align 4
  %10 = alloca i32, align 4
  %11 = alloca i16, align 2
  store ptr %0, ptr %4, align 8, !tbaa !4
  store ptr %1, ptr %5, align 8, !tbaa !9
  store i64 %2, ptr %6, align 8, !tbaa !58
  call void @llvm.lifetime.start.p0(i64 32, ptr %7) #5
  call void @llvm.lifetime.start.p0(i64 40, ptr %8) #5
  call void @llvm.lifetime.start.p0(i64 4, ptr %9) #5
  call void @llvm.lifetime.start.p0(i64 4, ptr %10) #5
  store i32 0, ptr %10, align 4, !tbaa !53
  br label %12

12:                                               ; preds = %3
  br label %13

13:                                               ; preds = %12
  br label %14

14:                                               ; preds = %13
  br label %15

15:                                               ; preds = %14
  br label %16

16:                                               ; preds = %15
  br label %17

17:                                               ; preds = %16
  br label %18

18:                                               ; preds = %17
  br label %19

19:                                               ; preds = %18
  br label %20

20:                                               ; preds = %19
  call void @llvm.memset.p0.i64(ptr align 4 %7, i8 0, i64 32, i1 false)
  %21 = getelementptr inbounds [5 x %struct.pollfd], ptr %8, i64 0, i64 0
  call void @llvm.memset.p0.i64(ptr align 16 %21, i8 0, i64 40, i1 false)
  %22 = load ptr, ptr %4, align 8, !tbaa !4
  %23 = load ptr, ptr %5, align 8, !tbaa !9
  call void @Curl_conn_cf_adjust_pollset(ptr noundef %22, ptr noundef %23, ptr noundef %7)
  br label %24

24:                                               ; preds = %20
  br label %25

25:                                               ; preds = %24
  br label %26

26:                                               ; preds = %25
  store i32 0, ptr %9, align 4, !tbaa !53
  br label %27

27:                                               ; preds = %81, %26
  %28 = load i32, ptr %9, align 4, !tbaa !53
  %29 = getelementptr inbounds nuw %struct.easy_pollset, ptr %7, i32 0, i32 1
  %30 = load i32, ptr %29, align 4, !tbaa !155
  %31 = icmp ult i32 %28, %30
  br i1 %31, label %32, label %84

32:                                               ; preds = %27
  call void @llvm.lifetime.start.p0(i64 2, ptr %11) #5
  store i16 0, ptr %11, align 2, !tbaa !156
  %33 = getelementptr inbounds nuw %struct.easy_pollset, ptr %7, i32 0, i32 2
  %34 = load i32, ptr %9, align 4, !tbaa !53
  %35 = zext i32 %34 to i64
  %36 = getelementptr inbounds nuw [5 x i8], ptr %33, i64 0, i64 %35
  %37 = load i8, ptr %36, align 1, !tbaa !157
  %38 = zext i8 %37 to i32
  %39 = and i32 %38, 1
  %40 = icmp ne i32 %39, 0
  br i1 %40, label %41, label %46

41:                                               ; preds = %32
  %42 = load i16, ptr %11, align 2, !tbaa !156
  %43 = sext i16 %42 to i32
  %44 = or i32 %43, 1
  %45 = trunc i32 %44 to i16
  store i16 %45, ptr %11, align 2, !tbaa !156
  br label %46

46:                                               ; preds = %41, %32
  %47 = getelementptr inbounds nuw %struct.easy_pollset, ptr %7, i32 0, i32 2
  %48 = load i32, ptr %9, align 4, !tbaa !53
  %49 = zext i32 %48 to i64
  %50 = getelementptr inbounds nuw [5 x i8], ptr %47, i64 0, i64 %49
  %51 = load i8, ptr %50, align 1, !tbaa !157
  %52 = zext i8 %51 to i32
  %53 = and i32 %52, 2
  %54 = icmp ne i32 %53, 0
  br i1 %54, label %55, label %60

55:                                               ; preds = %46
  %56 = load i16, ptr %11, align 2, !tbaa !156
  %57 = sext i16 %56 to i32
  %58 = or i32 %57, 4
  %59 = trunc i32 %58 to i16
  store i16 %59, ptr %11, align 2, !tbaa !156
  br label %60

60:                                               ; preds = %55, %46
  %61 = load i16, ptr %11, align 2, !tbaa !156
  %62 = icmp ne i16 %61, 0
  br i1 %62, label %63, label %80

63:                                               ; preds = %60
  %64 = getelementptr inbounds nuw %struct.easy_pollset, ptr %7, i32 0, i32 0
  %65 = load i32, ptr %9, align 4, !tbaa !53
  %66 = zext i32 %65 to i64
  %67 = getelementptr inbounds nuw [5 x i32], ptr %64, i64 0, i64 %66
  %68 = load i32, ptr %67, align 4, !tbaa !53
  %69 = load i32, ptr %10, align 4, !tbaa !53
  %70 = zext i32 %69 to i64
  %71 = getelementptr inbounds nuw [5 x %struct.pollfd], ptr %8, i64 0, i64 %70
  %72 = getelementptr inbounds nuw %struct.pollfd, ptr %71, i32 0, i32 0
  store i32 %68, ptr %72, align 8, !tbaa !158
  %73 = load i16, ptr %11, align 2, !tbaa !156
  %74 = load i32, ptr %10, align 4, !tbaa !53
  %75 = zext i32 %74 to i64
  %76 = getelementptr inbounds nuw [5 x %struct.pollfd], ptr %8, i64 0, i64 %75
  %77 = getelementptr inbounds nuw %struct.pollfd, ptr %76, i32 0, i32 1
  store i16 %73, ptr %77, align 4, !tbaa !160
  %78 = load i32, ptr %10, align 4, !tbaa !53
  %79 = add i32 %78, 1
  store i32 %79, ptr %10, align 4, !tbaa !53
  br label %80

80:                                               ; preds = %63, %60
  call void @llvm.lifetime.end.p0(i64 2, ptr %11) #5
  br label %81

81:                                               ; preds = %80
  %82 = load i32, ptr %9, align 4, !tbaa !53
  %83 = add i32 %82, 1
  store i32 %83, ptr %9, align 4, !tbaa !53
  br label %27, !llvm.loop !161

84:                                               ; preds = %27
  %85 = load i32, ptr %10, align 4, !tbaa !53
  %86 = icmp ne i32 %85, 0
  br i1 %86, label %91, label %87

87:                                               ; preds = %84
  br label %88

88:                                               ; preds = %87
  br label %89

89:                                               ; preds = %88
  br label %90

90:                                               ; preds = %89
  br label %91

91:                                               ; preds = %90, %84
  %92 = getelementptr inbounds [5 x %struct.pollfd], ptr %8, i64 0, i64 0
  %93 = load i32, ptr %10, align 4, !tbaa !53
  %94 = load i64, ptr %6, align 8, !tbaa !58
  %95 = call i32 @Curl_poll(ptr noundef %92, i32 noundef %93, i64 noundef %94)
  call void @llvm.lifetime.end.p0(i64 4, ptr %10) #5
  call void @llvm.lifetime.end.p0(i64 4, ptr %9) #5
  call void @llvm.lifetime.end.p0(i64 40, ptr %8) #5
  call void @llvm.lifetime.end.p0(i64 32, ptr %7) #5
  ret i32 %95
}