; Function Attrs: nounwind uwtable
define dso_local i32 @Curl_conn_cf_poll(ptr noundef %0, ptr noundef %1, i64 noundef %2) local_unnamed_addr #1 {
  %4 = alloca %struct.easy_pollset, align 4
  %5 = alloca [5 x %struct.pollfd], align 16
  call void @llvm.lifetime.start.p0(i64 32, ptr nonnull %4) #12
  call void @llvm.lifetime.start.p0(i64 40, ptr nonnull %5) #12
  call void @llvm.memset.p0.i64(ptr noundef nonnull align 4 dereferenceable(32) %4, i8 0, i64 32, i1 false)
  call void @llvm.memset.p0.i64(ptr noundef nonnull align 16 dereferenceable(40) %5, i8 0, i64 40, i1 false)
  br label %6

6:                                                ; preds = %14, %3
  %.0.i = phi ptr [ %0, %3 ], [ %13, %14 ]
  %.not.i = icmp eq ptr %.0.i, null
  br i1 %.not.i, label %._crit_edge, label %7

7:                                                ; preds = %6
  %8 = getelementptr inbounds nuw i8, ptr %.0.i, i64 36
  %9 = load i8, ptr %8, align 4
  %10 = and i8 %9, 1
  %.not17.i = icmp eq i8 %10, 0
  br i1 %.not17.i, label %11, label %.lr.ph.i.preheader

11:                                               ; preds = %7
  %12 = getelementptr inbounds nuw i8, ptr %.0.i, i64 8
  %13 = load ptr, ptr %12, align 8, !tbaa !8
  %.not18.i = icmp eq ptr %13, null
  br i1 %.not18.i, label %.lr.ph.i.preheader, label %14

14:                                               ; preds = %11
  %15 = getelementptr inbounds nuw i8, ptr %13, i64 36
  %16 = load i8, ptr %15, align 4
  %17 = and i8 %16, 1
  %.not19.i = icmp eq i8 %17, 0
  br i1 %.not19.i, label %6, label %.lr.ph.i.preheader, !llvm.loop !138

.lr.ph.i.preheader:                               ; preds = %14, %11, %7
  br label %.lr.ph.i

.lr.ph.i:                                         ; preds = %.lr.ph.i.preheader, %21
  %.124.i = phi ptr [ %23, %21 ], [ %.0.i, %.lr.ph.i.preheader ]
  %18 = getelementptr inbounds nuw i8, ptr %.124.i, i64 36
  %19 = load i8, ptr %18, align 4
  %20 = and i8 %19, 2
  %.not21.i = icmp eq i8 %20, 0
  br i1 %.not21.i, label %.lr.ph29.i, label %21

21:                                               ; preds = %.lr.ph.i
  %22 = getelementptr inbounds nuw i8, ptr %.124.i, i64 8
  %23 = load ptr, ptr %22, align 8, !tbaa !8
  %.not20.i = icmp eq ptr %23, null
  br i1 %.not20.i, label %._crit_edge, label %.lr.ph.i, !llvm.loop !139

.lr.ph29.i:                                       ; preds = %.lr.ph.i, %.lr.ph29.i
  %.228.i = phi ptr [ %28, %.lr.ph29.i ], [ %.124.i, %.lr.ph.i ]
  %24 = load ptr, ptr %.228.i, align 8, !tbaa !15
  %25 = getelementptr inbounds nuw i8, ptr %24, i64 56
  %26 = load ptr, ptr %25, align 8, !tbaa !140
  call void %26(ptr noundef nonnull %.228.i, ptr noundef %1, ptr noundef nonnull %4) #12
  %27 = getelementptr inbounds nuw i8, ptr %.228.i, i64 8
  %28 = load ptr, ptr %27, align 8, !tbaa !8
  %.not22.i = icmp eq ptr %28, null
  br i1 %.not22.i, label %Curl_conn_cf_adjust_pollset.exit, label %.lr.ph29.i, !llvm.loop !141

Curl_conn_cf_adjust_pollset.exit:                 ; preds = %.lr.ph29.i
  %.phi.trans.insert = getelementptr inbounds nuw i8, ptr %4, i64 20
  %.pre = load i32, ptr %.phi.trans.insert, align 4, !tbaa !143
  %.not = icmp eq i32 %.pre, 0
  br i1 %.not, label %._crit_edge, label %.lr.ph

.lr.ph:                                           ; preds = %Curl_conn_cf_adjust_pollset.exit
  %29 = getelementptr inbounds nuw i8, ptr %4, i64 24
  %wide.trip.count = zext i32 %.pre to i64
  br label %30

30:                                               ; preds = %.lr.ph, %43
  %indvars.iv = phi i64 [ 0, %.lr.ph ], [ %indvars.iv.next, %43 ]
  %.01627 = phi i32 [ 0, %.lr.ph ], [ %.117, %43 ]
  %31 = getelementptr inbounds nuw [5 x i8], ptr %29, i64 0, i64 %indvars.iv
  %32 = load i8, ptr %31, align 1, !tbaa !144
  %33 = and i8 %32, 1
  %34 = shl i8 %32, 1
  %35 = and i8 %34, 4
  %.121 = or disjoint i8 %35, %33
  %.not20 = icmp eq i8 %.121, 0
  br i1 %.not20, label %43, label %36

36:                                               ; preds = %30
  %.1 = zext nneg i8 %.121 to i16
  %37 = getelementptr inbounds nuw [5 x i32], ptr %4, i64 0, i64 %indvars.iv
  %38 = load i32, ptr %37, align 4, !tbaa !44
  %39 = zext i32 %.01627 to i64
  %40 = getelementptr inbounds nuw [5 x %struct.pollfd], ptr %5, i64 0, i64 %39
  store i32 %38, ptr %40, align 8, !tbaa !145
  %41 = getelementptr inbounds nuw i8, ptr %40, i64 4
  store i16 %.1, ptr %41, align 4, !tbaa !147
  %42 = add i32 %.01627, 1
  br label %43

43:                                               ; preds = %36, %30
  %.117 = phi i32 [ %42, %36 ], [ %.01627, %30 ]
  %indvars.iv.next = add nuw nsw i64 %indvars.iv, 1
  %exitcond.not = icmp eq i64 %indvars.iv.next, %wide.trip.count
  br i1 %exitcond.not, label %._crit_edge, label %30, !llvm.loop !148

._crit_edge:                                      ; preds = %6, %21, %43, %Curl_conn_cf_adjust_pollset.exit
  %.016.lcssa = phi i32 [ 0, %Curl_conn_cf_adjust_pollset.exit ], [ %.117, %43 ], [ 0, %21 ], [ 0, %6 ]
  %44 = call i32 @Curl_poll(ptr noundef nonnull %5, i32 noundef %.016.lcssa, i64 noundef %2) #12
  call void @llvm.lifetime.end.p0(i64 40, ptr nonnull %5) #12
  call void @llvm.lifetime.end.p0(i64 32, ptr nonnull %4) #12
  ret i32 %44
}